target datalayout = "e-m:e-p270:32:32-p271:32:32-p272:64:64-i64:64-i128:128-f80:128-n8:16:32:64-S128"
target triple = "x86_64-pc-linux-gnu"

%union.pthread_mutex_t = type { %struct.__pthread_mutex_s }
%struct.__pthread_mutex_s = type { i32, i32, i32, i32, i32, i16, i16, %struct.__pthread_internal_list }
%struct.__pthread_internal_list = type { ptr, ptr }
%struct.slurm_opt_t = type { ptr, ptr, ptr, ptr, ptr, ptr, ptr, ptr, i32, ptr, ptr, ptr, ptr, i32, i32, ptr, i32, i8, i8, i32, i8, i32, i32, ptr, i8, i32, i32, i64, i32, i32, i32, i32, i32, i32, ptr, i32, ptr, i8, i32, i32, ptr, i32, i32, i32, ptr, ptr, i32, i32, ptr, ptr, ptr, i32, i16, i16, i16, i8, i8, ptr, i8, i16, ptr, ptr, i32, i32, i32, ptr, ptr, ptr, ptr, ptr, ptr, i32, i64, i64, i64, i16, i64, ptr, ptr, ptr, ptr, ptr, ptr, ptr, i8, ptr, ptr, ptr, ptr, i8, i64, ptr, i16, ptr, i32, i32, ptr, ptr, i32, i32, i32, ptr, i32, i32, i32, i32, i32, ptr, i64, i32, i16, i32, ptr, ptr, ptr, ptr, ptr, i16, ptr, ptr, i16, i8, ptr, ptr, ptr, ptr }
%struct.srun_opt_t = type { i16, ptr, ptr, ptr, i8, ptr, i16, i8, ptr, i32, i8, i8, i8, ptr, i8, i8, i8, i32, i32, i32, i8, i32, i32, i32, ptr, i8, i32, i8, i8, ptr, ptr, i32, i8, i8, ptr, ptr, ptr, i8, i32, i8, i32, ptr, ptr, i8, i8, i16, i8, i8 }
%struct.slurmdb_cluster_rec = type { ptr, i16, i64, %struct.sockaddr_storage, ptr, i32, i16, ptr, i16, %struct.slurmdb_cluster_fed_t, i32, %union.pthread_mutex_t, ptr, ptr, ptr, i16, ptr, ptr }
%struct.sockaddr_storage = type { i16, [118 x i8], i64 }
%struct.slurmdb_cluster_fed_t = type { ptr, i32, ptr, ptr, ptr, i32, i8, i8 }

@opt = external global %struct.slurm_opt_t, align 8
@working_cluster_rec = external global ptr, align 8
@error_exit = external global i32, align 4
@sropt = external global %struct.srun_opt_t, align 8
@.str.5 = private unnamed_addr constant [34 x i8] c"Could not get cluster information\00", align 1
@.str.6 = private unnamed_addr constant [44 x i8] c"Looking for job %d on cluster %s (addr: %s)\00", align 1
@.str.7 = private unnamed_addr constant [25 x i8] c"Slurm job %u has expired\00", align 1
@.str.8 = private unnamed_addr constant [44 x i8] c"Unable to confirm allocation for job %u: %m\00", align 1
@.str.9 = private unnamed_addr constant [67 x i8] c"Check SLURM_JOB_ID environment variable. Expired or invalid job %u\00", align 1

; Function Attrs: nounwind uwtable
define dso_local ptr @existing_allocation() #0 {
  %1 = alloca ptr, align 8
  %2 = alloca i32, align 4
  %3 = alloca ptr, align 8
  %4 = alloca i32, align 4
  %5 = alloca ptr, align 8
  call void @llvm.lifetime.start.p0(i64 4, ptr %2) #7
  call void @llvm.lifetime.start.p0(i64 8, ptr %3) #7
  store ptr null, ptr %3, align 8
  %6 = load i32, ptr getelementptr inbounds nuw (%struct.srun_opt_t, ptr @sropt, i32 0, i32 17), align 4
  %7 = icmp eq i32 %6, -2
  br i1 %7, label %8, label %9

8:                                                ; preds = %0
  store ptr null, ptr %1, align 8
  store i32 1, ptr %4, align 4
  br label %72

9:                                                ; preds = %0
  %10 = load ptr, ptr getelementptr inbounds nuw (%struct.slurm_opt_t, ptr @opt, i32 0, i32 12), align 8
  %11 = icmp ne ptr %10, null
  br i1 %11, label %12, label %38

12:                                               ; preds = %9
  call void @llvm.lifetime.start.p0(i64 8, ptr %5) #7
  store ptr null, ptr %5, align 8
  %13 = load ptr, ptr getelementptr inbounds nuw (%struct.slurm_opt_t, ptr @opt, i32 0, i32 12), align 8
  %14 = call i32 @slurm_get_cluster_info(ptr noundef %5, ptr noundef %13, i16 noundef zeroext 0)
  %15 = icmp ne i32 %14, 0
  br i1 %15, label %16, label %18

16:                                               ; preds = %12
  %17 = load ptr, ptr getelementptr inbounds nuw (%struct.slurm_opt_t, ptr @opt, i32 0, i32 12), align 8
  call void @print_db_notok(ptr noundef %17, i1 noundef zeroext false)
  call void (ptr, ...) @fatal(ptr noundef @.str.5) #8
  unreachable

18:                                               ; preds = %12
  %19 = load ptr, ptr %5, align 8
  %20 = call ptr @list_peek(ptr noundef %19)
  store ptr %20, ptr @working_cluster_rec, align 8
  br label %21

21:                                               ; preds = %18
  br label %22

22:                                               ; preds = %21
  %23 = call i32 @get_log_level()
  %24 = icmp sge i32 %23, 6
  br i1 %24, label %25, label %33

25:                                               ; preds = %22
  %26 = load i32, ptr getelementptr inbounds nuw (%struct.srun_opt_t, ptr @sropt, i32 0, i32 17), align 4
  %27 = load ptr, ptr @working_cluster_rec, align 8
  %28 = getelementptr inbounds nuw %struct.slurmdb_cluster_rec, ptr %27, i32 0, i32 12
  %29 = load ptr, ptr %28, align 8
  %30 = load ptr, ptr @working_cluster_rec, align 8
  %31 = getelementptr inbounds nuw %struct.slurmdb_cluster_rec, ptr %30, i32 0, i32 4
  %32 = load ptr, ptr %31, align 8
  call void (i32, ptr, ...) @log_var(i32 noundef 6, ptr noundef @.str.6, i32 noundef %26, ptr noundef %29, ptr noundef %32)
  br label %33

33:                                               ; preds = %25, %22
  br label %34

34:                                               ; preds = %33
  br label %35

35:                                               ; preds = %34
  br label %36

36:                                               ; preds = %35
  br label %37

37:                                               ; preds = %36
  call void @llvm.lifetime.end.p0(i64 8, ptr %5) #7
  br label %38

38:                                               ; preds = %37, %9
  %39 = load i32, ptr getelementptr inbounds nuw (%struct.srun_opt_t, ptr @sropt, i32 0, i32 17), align 4
  store i32 %39, ptr %2, align 4
  %40 = load i32, ptr %2, align 4
  %41 = call i32 @slurm_het_job_lookup(i32 noundef %40, ptr noundef %3)
  %42 = icmp slt i32 %41, 0
  br i1 %42, label %43, label %70

43:                                               ; preds = %38
  %44 = load i8, ptr getelementptr inbounds nuw (%struct.srun_opt_t, ptr @sropt, i32 0, i32 32), align 4, !range !13, !noundef !14
  %45 = trunc i8 %44 to i1
  br i1 %45, label %46, label %47

46:                                               ; preds = %43
  store ptr null, ptr %1, align 8
  store i32 1, ptr %4, align 4
  br label %72

47:                                               ; preds = %43
  %48 = call ptr @__errno_location() #10
  %49 = load i32, ptr %48, align 4
  %50 = icmp eq i32 %49, 2021
  br i1 %50, label %51, label %54

51:                                               ; preds = %47
  %52 = load i32, ptr %2, align 4
  %53 = call i32 (ptr, ...) @error(ptr noundef @.str.7, i32 noundef %52)
  br label %57

54:                                               ; preds = %47
  %55 = load i32, ptr %2, align 4
  %56 = call i32 (ptr, ...) @error(ptr noundef @.str.8, i32 noundef %55)
  br label %57

57:                                               ; preds = %54, %51
  br label %58

58:                                               ; preds = %57
  br label %59

59:                                               ; preds = %58
  %60 = call i32 @get_log_level()
  %61 = icmp sge i32 %60, 3
  br i1 %61, label %62, label %64

62:                                               ; preds = %59
  %63 = load i32, ptr %2, align 4
  call void (i32, ptr, ...) @log_var(i32 noundef 3, ptr noundef @.str.9, i32 noundef %63)
  br label %64

64:                                               ; preds = %62, %59
  br label %65

65:                                               ; preds = %64
  br label %66

66:                                               ; preds = %65
  br label %67

67:                                               ; preds = %66
  br label %68

68:                                               ; preds = %67
  %69 = load i32, ptr @error_exit, align 4
  call void @exit(i32 noundef %69) #9
  unreachable

70:                                               ; preds = %38
  %71 = load ptr, ptr %3, align 8
  store ptr %71, ptr %1, align 8
  store i32 1, ptr %4, align 4
  br label %72

72:                                               ; preds = %70, %46, %8
  call void @llvm.lifetime.end.p0(i64 8, ptr %3) #7
  call void @llvm.lifetime.end.p0(i64 4, ptr %2) #7
  %73 = load ptr, ptr %1, align 8
  ret ptr %73
}