; Function Attrs: nounwind uwtable
define dso_local ptr @existing_allocation() local_unnamed_addr #0 {
  %1 = alloca ptr, align 8
  %2 = alloca ptr, align 8
  call void @llvm.lifetime.start.p0(i64 8, ptr nonnull %1) #9
  store ptr null, ptr %1, align 8
  %3 = load i32, ptr getelementptr inbounds nuw (i8, ptr @sropt, i64 84), align 4
  %4 = icmp eq i32 %3, -2
  br i1 %4, label %43, label %5

5:                                                ; preds = %0
  %6 = load ptr, ptr getelementptr inbounds nuw (i8, ptr @opt, i64 96), align 8
  %.not = icmp eq ptr %6, null
  br i1 %.not, label %24, label %7

7:                                                ; preds = %5
  call void @llvm.lifetime.start.p0(i64 8, ptr nonnull %2) #9
  store ptr null, ptr %2, align 8
  %8 = call i32 @slurm_get_cluster_info(ptr noundef nonnull %2, ptr noundef nonnull %6, i16 noundef zeroext 0) #9
  %.not4 = icmp eq i32 %8, 0
  br i1 %.not4, label %11, label %9

9:                                                ; preds = %7
  %10 = load ptr, ptr getelementptr inbounds nuw (i8, ptr @opt, i64 96), align 8
  call void @print_db_notok(ptr noundef %10, i1 noundef zeroext false) #9
  call void (ptr, ...) @fatal(ptr noundef nonnull @.str.5) #10
  unreachable

11:                                               ; preds = %7
  %12 = load ptr, ptr %2, align 8
  %13 = call ptr @list_peek(ptr noundef %12) #9
  store ptr %13, ptr @working_cluster_rec, align 8
  %14 = call i32 @get_log_level() #9
  %15 = icmp sgt i32 %14, 5
  br i1 %15, label %16, label %23

16:                                               ; preds = %11
  %17 = load i32, ptr getelementptr inbounds nuw (i8, ptr @sropt, i64 84), align 4
  %18 = load ptr, ptr @working_cluster_rec, align 8
  %19 = getelementptr inbounds nuw i8, ptr %18, i64 280
  %20 = load ptr, ptr %19, align 8
  %21 = getelementptr inbounds nuw i8, ptr %18, i64 152
  %22 = load ptr, ptr %21, align 8
  call void (i32, ptr, ...) @log_var(i32 noundef 6, ptr noundef nonnull @.str.6, i32 noundef %17, ptr noundef %20, ptr noundef %22) #9
  br label %23

23:                                               ; preds = %16, %11
  call void @llvm.lifetime.end.p0(i64 8, ptr nonnull %2) #9
  %.pre = load i32, ptr getelementptr inbounds nuw (i8, ptr @sropt, i64 84), align 4
  br label %24

24:                                               ; preds = %23, %5
  %25 = phi i32 [ %.pre, %23 ], [ %3, %5 ]
  %26 = call i32 @slurm_het_job_lookup(i32 noundef %25, ptr noundef nonnull %1) #9
  %27 = icmp slt i32 %26, 0
  br i1 %27, label %28, label %41

28:                                               ; preds = %24
  %29 = load i8, ptr getelementptr inbounds nuw (i8, ptr @sropt, i64 156), align 4, !range !16, !noundef !17
  %30 = trunc nuw i8 %29 to i1
  br i1 %30, label %43, label %31

31:                                               ; preds = %28
  %32 = tail call ptr @__errno_location() #11
  %33 = load i32, ptr %32, align 4
  %34 = icmp eq i32 %33, 2021
  %.str.7..str.8 = select i1 %34, ptr @.str.7, ptr @.str.8
  %35 = call i32 (ptr, ...) @error(ptr noundef nonnull %.str.7..str.8, i32 noundef %25) #9
  %36 = call i32 @get_log_level() #9
  %37 = icmp sgt i32 %36, 2
  br i1 %37, label %38, label %39

38:                                               ; preds = %31
  call void (i32, ptr, ...) @log_var(i32 noundef 3, ptr noundef nonnull @.str.9, i32 noundef %25) #9
  br label %39

39:                                               ; preds = %38, %31
  %40 = load i32, ptr @error_exit, align 4
  call void @exit(i32 noundef %40) #10
  unreachable

41:                                               ; preds = %24
  %42 = load ptr, ptr %1, align 8
  br label %43

43:                                               ; preds = %28, %0, %41
  %.0 = phi ptr [ %42, %41 ], [ null, %0 ], [ null, %28 ]
  call void @llvm.lifetime.end.p0(i64 8, ptr nonnull %1) #9
  ret ptr %.0
}